target datalayout = "e-m:e-p270:32:32-p271:32:32-p272:64:64-i64:64-i128:128-f80:128-n8:16:32:64-S128"
target triple = "x86_64-unknown-linux-gnu"

@_ZTIN6icu_7512NumberFormatE = external constant ptr
@_ZTIN6icu_7513DecimalFormatE = external constant ptr

; Function Attrs: mustprogress uwtable
define double @unum_getDoubleAttribute_75(ptr noundef %fmt, i32 noundef %attr) #0 {
entry:
  %retval = alloca double, align 8
  %fmt.addr = alloca ptr, align 8
  %attr.addr = alloca i32, align 4
  %nf = alloca ptr, align 8
  %df = alloca ptr, align 8
  store ptr %fmt, ptr %fmt.addr, align 8
  store i32 %attr, ptr %attr.addr, align 4
  %0 = load ptr, ptr %fmt.addr, align 8
  store ptr %0, ptr %nf, align 8
  %1 = load ptr, ptr %nf, align 8
  %2 = icmp eq ptr %1, null
  br i1 %2, label %dynamic_cast.null, label %dynamic_cast.notnull

dynamic_cast.notnull:                             ; preds = %entry
  %3 = call ptr @__dynamic_cast(ptr %1, ptr @_ZTIN6icu_7512NumberFormatE, ptr @_ZTIN6icu_7513DecimalFormatE, i64 0) #8
  br label %dynamic_cast.end

dynamic_cast.null:                                ; preds = %entry
  br label %dynamic_cast.end

dynamic_cast.end:                                 ; preds = %dynamic_cast.null, %dynamic_cast.notnull
  %4 = phi ptr [ %3, %dynamic_cast.notnull ], [ null, %dynamic_cast.null ]
  store ptr %4, ptr %df, align 8
  %5 = load ptr, ptr %df, align 8
  %cmp = icmp ne ptr %5, null
  br i1 %cmp, label %land.lhs.true, label %if.else

land.lhs.true:                                    ; preds = %dynamic_cast.end
  %6 = load i32, ptr %attr.addr, align 4
  %cmp1 = icmp eq i32 %6, 12
  br i1 %cmp1, label %if.then, label %if.else

if.then:                                          ; preds = %land.lhs.true
  %7 = load ptr, ptr %df, align 8
  %vtable = load ptr, ptr %7, align 8
  %vfn = getelementptr inbounds ptr, ptr %vtable, i64 50
  %8 = load ptr, ptr %vfn, align 8
  %call = call noundef double %8(ptr noundef nonnull align 8 dereferenceable(368) %7)
  store double %call, ptr %retval, align 8
  br label %return

if.else:                                          ; preds = %land.lhs.true, %dynamic_cast.end
  store double -1.000000e+00, ptr %retval, align 8
  br label %return

return:                                           ; preds = %if.else, %if.then
  %9 = load double, ptr %retval, align 8
  ret double %9
}