; Function Attrs: mustprogress uwtable
define noundef double @unum_getDoubleAttribute_75(ptr noundef %fmt, i32 noundef %attr) local_unnamed_addr #0 {
entry:
  %0 = icmp eq ptr %fmt, null
  br i1 %0, label %return, label %dynamic_cast.end

dynamic_cast.end:                                 ; preds = %entry
  %1 = tail call ptr @__dynamic_cast(ptr nonnull %fmt, ptr nonnull @_ZTIN6icu_7512NumberFormatE, ptr nonnull @_ZTIN6icu_7513DecimalFormatE, i64 0) #10
  %cmp = icmp ne ptr %1, null
  %cmp1 = icmp eq i32 %attr, 12
  %or.cond = and i1 %cmp1, %cmp
  br i1 %or.cond, label %if.then, label %return

if.then:                                          ; preds = %dynamic_cast.end
  %vtable = load ptr, ptr %1, align 8
  %vfn = getelementptr inbounds i8, ptr %vtable, i64 400
  %2 = load ptr, ptr %vfn, align 8
  %call = tail call noundef double %2(ptr noundef nonnull align 8 dereferenceable(368) %1)
  br label %return

return:                                           ; preds = %entry, %dynamic_cast.end, %if.then
  %retval.0 = phi double [ %call, %if.then ], [ -1.000000e+00, %dynamic_cast.end ], [ -1.000000e+00, %entry ]
  ret double %retval.0
}